target datalayout = "e-m:e-p270:32:32-p271:32:32-p272:64:64-i64:64-i128:128-f80:128-n8:16:32:64-S128"
target triple = "x86_64-pc-linux-gnu"

%class.Metadata = type { ptr }
%class.AccessFlags = type { i32 }
%"struct.Atomic::CmpxchgImpl" = type { i8 }
%"struct.Atomic::PlatformCmpxchg" = type { i8 }
%class.Method = type { %class.Metadata, ptr, ptr, ptr, ptr, %class.AccessFlags, i32, %class.MethodFlags, i16, %class.JfrTraceFlag, ptr, ptr, ptr, ptr }
%class.MethodFlags = type { i32 }
%class.JfrTraceFlag = type { i16 }

; Function Attrs: mustprogress nounwind uwtable
define linkonce_odr hidden noundef zeroext i8 @_ZNK6Atomic15PlatformCmpxchgILm1EEclIhEET_PVS3_S3_S3_19atomic_memory_order(ptr noundef nonnull align 1 dereferenceable(1) %0, ptr noundef %1, i8 noundef zeroext %2, i8 noundef zeroext %3, i32 noundef %4) #1 comdat align 2 {
  %6 = alloca ptr, align 8
  %7 = alloca ptr, align 8
  %8 = alloca i8, align 1
  %9 = alloca i8, align 1
  %10 = alloca i32, align 4
  store ptr %0, ptr %6, align 8
  store ptr %1, ptr %7, align 8
  store i8 %2, ptr %8, align 1
  store i8 %3, ptr %9, align 1
  store i32 %4, ptr %10, align 4
  %11 = load i8, ptr %9, align 1
  %12 = load i8, ptr %8, align 1
  %13 = load ptr, ptr %7, align 8
  %14 = call i8 asm sideeffect "lock cmpxchgb $1,($3)", "={ax},q,{ax},r,~{cc},~{memory},~{dirflag},~{fpsr},~{flags}"(i8 %11, i8 %12, ptr %13) #6, !srcloc !14
  store i8 %14, ptr %9, align 1
  %15 = load i8, ptr %9, align 1
  ret i8 %15
}

; Function Attrs: mustprogress nounwind uwtable
define linkonce_odr hidden noundef zeroext i8 @_ZNK6Atomic11CmpxchgImplIhhhvEclEPVhhh19atomic_memory_order(ptr noundef nonnull align 1 dereferenceable(1) %0, ptr noundef %1, i8 noundef zeroext %2, i8 noundef zeroext %3, i32 noundef %4) #1 comdat align 2 {
  %6 = alloca ptr, align 8
  %7 = alloca ptr, align 8
  %8 = alloca i8, align 1
  %9 = alloca i8, align 1
  %10 = alloca i32, align 4
  %11 = alloca %"struct.Atomic::PlatformCmpxchg", align 1
  store ptr %0, ptr %6, align 8
  store ptr %1, ptr %7, align 8
  store i8 %2, ptr %8, align 1
  store i8 %3, ptr %9, align 1
  store i32 %4, ptr %10, align 4
  %12 = load ptr, ptr %7, align 8
  %13 = load i8, ptr %8, align 1
  %14 = load i8, ptr %9, align 1
  %15 = load i32, ptr %10, align 4
  %16 = call noundef zeroext i8 @_ZNK6Atomic15PlatformCmpxchgILm1EEclIhEET_PVS3_S3_S3_19atomic_memory_order(ptr noundef nonnull align 1 dereferenceable(1) %11, ptr noundef %12, i8 noundef zeroext %13, i8 noundef zeroext %14, i32 noundef %15)
  ret i8 %16
}

; Function Attrs: mustprogress nounwind uwtable
define linkonce_odr hidden noundef zeroext i8 @_ZN6Atomic7cmpxchgIhhhEET_PVS1_T0_T1_19atomic_memory_order(ptr noundef %0, i8 noundef zeroext %1, i8 noundef zeroext %2, i32 noundef %3) #1 comdat align 2 {
  %5 = alloca ptr, align 8
  %6 = alloca i8, align 1
  %7 = alloca i8, align 1
  %8 = alloca i32, align 4
  %9 = alloca %"struct.Atomic::CmpxchgImpl", align 1
  store ptr %0, ptr %5, align 8
  store i8 %1, ptr %6, align 1
  store i8 %2, ptr %7, align 1
  store i32 %3, ptr %8, align 4
  %10 = load ptr, ptr %5, align 8
  %11 = load i8, ptr %6, align 1
  %12 = load i8, ptr %7, align 1
  %13 = load i32, ptr %8, align 4
  %14 = call noundef zeroext i8 @_ZNK6Atomic11CmpxchgImplIhhhvEclEPVhhh19atomic_memory_order(ptr noundef nonnull align 1 dereferenceable(1) %9, ptr noundef %10, i8 noundef zeroext %11, i8 noundef zeroext %12, i32 noundef %13)
  ret i8 %14
}

; Function Attrs: mustprogress nounwind uwtable
define linkonce_odr hidden noundef zeroext i8 @_Z11traceid_andhh(i8 noundef zeroext %0, i8 noundef zeroext %1) #1 comdat {
  %3 = alloca i8, align 1
  %4 = alloca i8, align 1
  store i8 %0, ptr %3, align 1
  store i8 %1, ptr %4, align 1
  %5 = load i8, ptr %3, align 1
  %6 = zext i8 %5 to i32
  %7 = load i8, ptr %4, align 1
  %8 = zext i8 %7 to i32
  %9 = and i32 %6, %8
  %10 = trunc i32 %9 to i8
  ret i8 %10
}

; Function Attrs: mustprogress nounwind uwtable
define linkonce_odr hidden noundef ptr @_ZNK12JfrTraceFlag9meta_addrEv(ptr noundef nonnull align 2 dereferenceable(2) %0) #1 comdat align 2 {
  %2 = alloca ptr, align 8
  store ptr %0, ptr %2, align 8
  %3 = load ptr, ptr %2, align 8
  %4 = getelementptr inbounds %class.JfrTraceFlag, ptr %3, i32 0, i32 0
  %5 = getelementptr inbounds i8, ptr %4, i64 1
  ret ptr %5
}

; Function Attrs: mustprogress nounwind uwtable
define linkonce_odr hidden void @_Z12set_cas_formIXadL_Z11traceid_andhhEEEvhPVh(i8 noundef zeroext %0, ptr noundef %1) #1 comdat {
  %3 = alloca i8, align 1
  %4 = alloca ptr, align 8
  %5 = alloca i8, align 1
  %6 = alloca i8, align 1
  store i8 %0, ptr %3, align 1
  store ptr %1, ptr %4, align 8
  br label %7

7:                                                ; preds = %29, %2
  %8 = load ptr, ptr %4, align 8
  %9 = load volatile i8, ptr %8, align 1
  store i8 %9, ptr %5, align 1
  %10 = load i8, ptr %3, align 1
  %11 = load i8, ptr %5, align 1
  %12 = call noundef zeroext i8 @_Z11traceid_andhh(i8 noundef zeroext %10, i8 noundef zeroext %11)
  store i8 %12, ptr %6, align 1
  %13 = load i8, ptr %5, align 1
  %14 = zext i8 %13 to i32
  %15 = load i8, ptr %6, align 1
  %16 = zext i8 %15 to i32
  %17 = icmp eq i32 %14, %16
  br i1 %17, label %27, label %18

18:                                               ; preds = %7
  %19 = load ptr, ptr %4, align 8
  %20 = load i8, ptr %5, align 1
  %21 = load i8, ptr %6, align 1
  %22 = call noundef zeroext i8 @_ZN6Atomic7cmpxchgIhhhEET_PVS1_T0_T1_19atomic_memory_order(ptr noundef %19, i8 noundef zeroext %20, i8 noundef zeroext %21, i32 noundef 8)
  %23 = zext i8 %22 to i32
  %24 = load i8, ptr %5, align 1
  %25 = zext i8 %24 to i32
  %26 = icmp eq i32 %23, %25
  br i1 %26, label %27, label %28

27:                                               ; preds = %18, %7
  br label %30

28:                                               ; preds = %18
  br label %29

29:                                               ; preds = %28
  br i1 true, label %7, label %30, !llvm.loop !13

30:                                               ; preds = %29, %27
  ret void
}

; Function Attrs: mustprogress nounwind uwtable
define linkonce_odr hidden noundef ptr @_ZNK6Method15trace_meta_addrEv(ptr noundef nonnull align 8 dereferenceable(88) %0) #1 comdat align 2 {
  %2 = alloca ptr, align 8
  store ptr %0, ptr %2, align 8
  %3 = load ptr, ptr %2, align 8
  %4 = getelementptr inbounds %class.Method, ptr %3, i32 0, i32 9
  %5 = call noundef ptr @_ZNK12JfrTraceFlag9meta_addrEv(ptr noundef nonnull align 2 dereferenceable(2) %4)
  ret ptr %5
}

; Function Attrs: mustprogress nounwind uwtable
define linkonce_odr hidden void @_Z8set_maskhPh(i8 noundef zeroext %0, ptr noundef %1) #1 comdat {
  %3 = alloca i8, align 1
  %4 = alloca ptr, align 8
  store i8 %0, ptr %3, align 1
  store ptr %1, ptr %4, align 8
  %5 = load i8, ptr %3, align 1
  %6 = load ptr, ptr %4, align 8
  call void @_Z12set_cas_formIXadL_Z11traceid_andhhEEEvhPVh(i8 noundef zeroext %5, ptr noundef %6)
  ret void
}

; Function Attrs: mustprogress nounwind uwtable
define linkonce_odr hidden noundef ptr @_Z17traceid_meta_byteI6MethodEPhPKT_(ptr noundef %0) #1 comdat {
  %2 = alloca ptr, align 8
  store ptr %0, ptr %2, align 8
  %3 = load ptr, ptr %2, align 8
  %4 = call noundef ptr @_ZNK6Method15trace_meta_addrEv(ptr noundef nonnull align 8 dereferenceable(88) %3)
  ret ptr %4
}

; Function Attrs: mustprogress nounwind uwtable
define linkonce_odr hidden void @_ZN14JfrTraceIdBits15meta_mask_storeI6MethodEEvhPKT_(i8 noundef zeroext %0, ptr noundef %1) #1 comdat align 2 {
  %3 = alloca i8, align 1
  %4 = alloca ptr, align 8
  store i8 %0, ptr %3, align 1
  store ptr %1, ptr %4, align 8
  %5 = load i8, ptr %3, align 1
  %6 = load ptr, ptr %4, align 8
  %7 = call noundef ptr @_Z17traceid_meta_byteI6MethodEPhPKT_(ptr noundef %6)
  call void @_Z8set_maskhPh(i8 noundef zeroext %5, ptr noundef %7)
  ret void
}

; Function Attrs: mustprogress nounwind uwtable
define hidden noundef i32 @_Z20write__method__leakpP19JfrCheckpointWriterPKv(ptr noundef %0, ptr noundef %1) #1 {
  %3 = alloca ptr, align 8
  %4 = alloca ptr, align 8
  %5 = alloca ptr, align 8
  store ptr %0, ptr %3, align 8
  store ptr %1, ptr %4, align 8
  %6 = load ptr, ptr %4, align 8
  store ptr %6, ptr %5, align 8
  %7 = load ptr, ptr %5, align 8
  call void @_ZN14JfrTraceIdBits15meta_mask_storeI6MethodEEvhPKT_(i8 noundef zeroext -5, ptr noundef %7)
  %8 = load ptr, ptr %3, align 8
  %9 = load ptr, ptr %5, align 8
  %10 = call noundef i32 @_ZL12write_methodP19JfrCheckpointWriterPK6Methodb(ptr noundef %8, ptr noundef %9, i1 noundef zeroext true)
  ret i32 %10
}