; Function Attrs: mustprogress nounwind uwtable
define hidden noundef i32 @_Z20write__method__leakpP19JfrCheckpointWriterPKv(ptr noundef %0, ptr noundef %1) local_unnamed_addr #0 {
  %3 = getelementptr inbounds i8, ptr %1, i64 55
  br label %4

4:                                                ; preds = %8, %2
  %5 = load volatile i8, ptr %3, align 1
  %6 = and i8 %5, -5
  %7 = icmp eq i8 %5, %6
  br i1 %7, label %_ZN14JfrTraceIdBits15meta_mask_storeI6MethodEEvhPKT_.exit, label %8

8:                                                ; preds = %4
  %9 = tail call noundef i8 asm sideeffect "lock cmpxchgb $1,($3)", "={ax},q,{ax},r,~{cc},~{memory},~{dirflag},~{fpsr},~{flags}"(i8 %6, i8 %5, ptr nonnull %3) #9, !srcloc !7
  %10 = icmp eq i8 %9, %5
  br i1 %10, label %_ZN14JfrTraceIdBits15meta_mask_storeI6MethodEEvhPKT_.exit, label %4, !llvm.loop !8

_ZN14JfrTraceIdBits15meta_mask_storeI6MethodEEvhPKT_.exit: ; preds = %4, %8
  tail call fastcc void @_ZL12write_methodP19JfrCheckpointWriterPK6Methodb(ptr noundef %0, ptr noundef %1, i1 noundef zeroext true)
  ret i32 1
}